; Function Attrs: mustprogress uwtable
define hidden void @_ZN12mpfx_manager5resetER4mpfx(ptr noundef nonnull align 8 dereferenceable(85) %0, ptr noundef nonnull align 4 captures(none) dereferenceable(4) %1) local_unnamed_addr #3 align 2 {
  %3 = load i32, ptr %1, align 4
  %.not.i = icmp ult i32 %3, 2
  br i1 %.not.i, label %_ZN12mpfx_manager3delER4mpfx.exit, label %4

4:                                                ; preds = %2
  %5 = lshr i32 %3, 1
  %6 = tail call noundef zeroext i1 @_ZN6memory16is_out_of_memoryEv()
  br i1 %6, label %_ZN6id_gen7recycleEj.exit.i, label %7

7:                                                ; preds = %4
  %8 = getelementptr inbounds nuw i8, ptr %0, i64 40
  %9 = load ptr, ptr %8, align 8, !tbaa !3
  %10 = icmp eq ptr %9, null
  br i1 %10, label %17, label %11

11:                                               ; preds = %7
  %12 = getelementptr inbounds i8, ptr %9, i64 -4
  %13 = load i32, ptr %12, align 4, !tbaa !22
  %14 = getelementptr inbounds i8, ptr %9, i64 -8
  %15 = load i32, ptr %14, align 4, !tbaa !22
  %16 = icmp eq i32 %13, %15
  br i1 %16, label %17, label %_ZN6vectorIjLb0EjE9push_backERKj.exit.i.i

17:                                               ; preds = %11, %7
  tail call void @_ZN6vectorIjLb0EjE13expand_vectorEv(ptr noundef nonnull align 8 dereferenceable(8) %8)
  %.pre.i.i.i = load ptr, ptr %8, align 8, !tbaa !3
  %.phi.trans.insert.i.i.i = getelementptr inbounds i8, ptr %.pre.i.i.i, i64 -4
  %.pre2.i.i.i = load i32, ptr %.phi.trans.insert.i.i.i, align 4, !tbaa !22
  br label %_ZN6vectorIjLb0EjE9push_backERKj.exit.i.i

_ZN6vectorIjLb0EjE9push_backERKj.exit.i.i:        ; preds = %17, %11
  %18 = phi i32 [ %.pre2.i.i.i, %17 ], [ %13, %11 ]
  %19 = phi ptr [ %.pre.i.i.i, %17 ], [ %9, %11 ]
  %20 = getelementptr inbounds i8, ptr %19, i64 -4
  %21 = zext i32 %18 to i64
  %22 = getelementptr inbounds nuw i32, ptr %19, i64 %21
  store i32 %5, ptr %22, align 4, !tbaa !22
  %23 = add i32 %18, 1
  store i32 %23, ptr %20, align 4, !tbaa !22
  br label %_ZN6id_gen7recycleEj.exit.i

_ZN6id_gen7recycleEj.exit.i:                      ; preds = %_ZN6vectorIjLb0EjE9push_backERKj.exit.i.i, %4
  %24 = getelementptr inbounds nuw i8, ptr %0, i64 16
  %25 = load ptr, ptr %24, align 8, !tbaa !3
  %26 = load i32, ptr %1, align 4
  %27 = lshr i32 %26, 1
  %28 = getelementptr inbounds nuw i8, ptr %0, i64 8
  %29 = load i32, ptr %28, align 8, !tbaa !19
  %30 = mul i32 %27, %29
  %31 = zext i32 %30 to i64
  %32 = getelementptr inbounds nuw i32, ptr %25, i64 %31
  %.not10.i = icmp eq i32 %29, 0
  br i1 %.not10.i, label %_ZN12mpfx_manager3delER4mpfx.exit, label %.lr.ph.i

.lr.ph.i:                                         ; preds = %_ZN6id_gen7recycleEj.exit.i, %.lr.ph.i
  %indvars.iv.i = phi i64 [ %indvars.iv.next.i, %.lr.ph.i ], [ 0, %_ZN6id_gen7recycleEj.exit.i ]
  %33 = getelementptr inbounds nuw i32, ptr %32, i64 %indvars.iv.i
  store i32 0, ptr %33, align 4, !tbaa !22
  %indvars.iv.next.i = add nuw nsw i64 %indvars.iv.i, 1
  %34 = load i32, ptr %28, align 8, !tbaa !19
  %35 = zext i32 %34 to i64
  %36 = icmp samesign ult i64 %indvars.iv.next.i, %35
  br i1 %36, label %.lr.ph.i, label %_ZN12mpfx_manager3delER4mpfx.exit, !llvm.loop !26

_ZN12mpfx_manager3delER4mpfx.exit:                ; preds = %.lr.ph.i, %2, %_ZN6id_gen7recycleEj.exit.i
  store i32 0, ptr %1, align 4
  ret void
}